target datalayout = "e-m:e-p270:32:32-p271:32:32-p272:64:64-i64:64-i128:128-f80:128-n8:16:32:64-S128"
target triple = "x86_64-pc-linux-gnu"

%class.btSequentialImpulseConstraintSolverMt = type { %class.btSequentialImpulseConstraintSolver, %struct.btBatchedConstraints, %struct.btBatchedConstraints, i32, i8, i8, [2 x i8], %class.btAlignedObjectArray.10, %class.btAlignedObjectArray.2, %class.btSpinMutex, [64 x i8], %class.btSpinMutex, %class.btAlignedObjectArray.8 }
%class.btSequentialImpulseConstraintSolver = type { %class.btConstraintSolver, %class.btAlignedObjectArray, %class.btAlignedObjectArray.0, %class.btAlignedObjectArray.0, %class.btAlignedObjectArray.0, %class.btAlignedObjectArray.0, %class.btAlignedObjectArray.2, %class.btAlignedObjectArray.2, %class.btAlignedObjectArray.2, %class.btAlignedObjectArray.4, i32, i32, %class.btAlignedObjectArray.2, ptr, ptr, ptr, i32, float, i64, %struct.btSolverAnalyticsData }
%class.btConstraintSolver = type { ptr }
%class.btAlignedObjectArray = type <{ [4 x i8], i32, i32, [4 x i8], ptr, i8, [7 x i8] }>
%class.btAlignedObjectArray.0 = type <{ [4 x i8], i32, i32, [4 x i8], ptr, i8, [7 x i8] }>
%class.btAlignedObjectArray.4 = type <{ [4 x i8], i32, i32, [4 x i8], ptr, i8, [7 x i8] }>
%struct.btSolverAnalyticsData = type { i32, i32, i32, i32, i32, double }
%struct.btBatchedConstraints = type { %class.btAlignedObjectArray.2, %class.btAlignedObjectArray.6, %class.btAlignedObjectArray.6, %class.btAlignedObjectArray.8, %class.btAlignedObjectArray.2, ptr }
%class.btAlignedObjectArray.6 = type <{ [4 x i8], i32, i32, [4 x i8], ptr, i8, [7 x i8] }>
%class.btAlignedObjectArray.10 = type <{ [4 x i8], i32, i32, [4 x i8], ptr, i8, [7 x i8] }>
%class.btAlignedObjectArray.2 = type <{ [4 x i8], i32, i32, [4 x i8], ptr, i8, [7 x i8] }>
%class.btSpinMutex = type { i32 }
%class.btAlignedObjectArray.8 = type <{ [4 x i8], i32, i32, [4 x i8], ptr, i8, [7 x i8] }>
%class.CProfileSample = type { i8 }

@_ZN37btSequentialImpulseConstraintSolverMt14s_minBatchSizeE = dso_local global i32 50, align 4
@_ZN37btSequentialImpulseConstraintSolverMt14s_maxBatchSizeE = dso_local global i32 100, align 4
@_ZN37btSequentialImpulseConstraintSolverMt21s_jointBatchingMethodE = dso_local global i32 0, align 4
@.str.1 = private unnamed_addr constant [29 x i8] c"setupBatchedJointConstraints\00", align 1

; Function Attrs: mustprogress uwtable
define dso_local void @_ZN37btSequentialImpulseConstraintSolverMt28setupBatchedJointConstraintsEv(ptr noundef nonnull align 8 dereferenceable(920) %0) unnamed_addr #2 align 2 personality ptr @__gxx_personality_v0 {
  %2 = alloca ptr, align 8
  %3 = alloca %class.CProfileSample, align 1
  %4 = alloca ptr, align 8
  %5 = alloca i32, align 4
  store ptr %0, ptr %2, align 8, !tbaa !12
  %6 = load ptr, ptr %2, align 8
  call void @llvm.lifetime.start.p0(i64 1, ptr %3) #16
  call void @_ZN14CProfileSampleC1EPKc(ptr noundef nonnull align 1 dereferenceable(1) %3, ptr noundef @.str.1)
  %7 = getelementptr inbounds nuw %class.btSequentialImpulseConstraintSolverMt, ptr %6, i32 0, i32 2
  %8 = getelementptr inbounds nuw %class.btSequentialImpulseConstraintSolver, ptr %6, i32 0, i32 3
  %9 = getelementptr inbounds nuw %class.btSequentialImpulseConstraintSolver, ptr %6, i32 0, i32 1
  %10 = load i32, ptr @_ZN37btSequentialImpulseConstraintSolverMt21s_jointBatchingMethodE, align 4, !tbaa !64
  %11 = load i32, ptr @_ZN37btSequentialImpulseConstraintSolverMt14s_minBatchSizeE, align 4, !tbaa !9
  %12 = load i32, ptr @_ZN37btSequentialImpulseConstraintSolverMt14s_maxBatchSizeE, align 4, !tbaa !9
  %13 = getelementptr inbounds nuw %class.btSequentialImpulseConstraintSolverMt, ptr %6, i32 0, i32 12
  invoke void @_ZN20btBatchedConstraints5setupEP20btAlignedObjectArrayI18btSolverConstraintERKS0_I12btSolverBodyENS_14BatchingMethodEiiPS0_IcE(ptr noundef nonnull align 8 dereferenceable(168) %7, ptr noundef %8, ptr noundef nonnull align 8 dereferenceable(25) %9, i32 noundef %10, i32 noundef %11, i32 noundef %12, ptr noundef %13)
          to label %14 unwind label %15

14:                                               ; preds = %1
  call void @_ZN14CProfileSampleD1Ev(ptr noundef nonnull align 1 dereferenceable(1) %3) #16
  call void @llvm.lifetime.end.p0(i64 1, ptr %3) #16
  ret void

15:                                               ; preds = %1
  %16 = landingpad { ptr, i32 }
          cleanup
  %17 = extractvalue { ptr, i32 } %16, 0
  store ptr %17, ptr %4, align 8
  %18 = extractvalue { ptr, i32 } %16, 1
  store i32 %18, ptr %5, align 4
  call void @_ZN14CProfileSampleD1Ev(ptr noundef nonnull align 1 dereferenceable(1) %3) #16
  call void @llvm.lifetime.end.p0(i64 1, ptr %3) #16
  br label %19

19:                                               ; preds = %15
  %20 = load ptr, ptr %4, align 8
  %21 = load i32, ptr %5, align 4
  %22 = insertvalue { ptr, i32 } poison, ptr %20, 0
  %23 = insertvalue { ptr, i32 } %22, i32 %21, 1
  resume { ptr, i32 } %23
}