; Function Attrs: mustprogress uwtable
define dso_local void @_ZN37btSequentialImpulseConstraintSolverMt28setupBatchedJointConstraintsEv(ptr noundef nonnull align 8 dereferenceable(920) %0) unnamed_addr #0 align 2 personality ptr @__gxx_personality_v0 {
  %2 = alloca %class.CProfileSample, align 1
  call void @llvm.lifetime.start.p0(i64 1, ptr nonnull %2) #16
  call void @_ZN14CProfileSampleC1EPKc(ptr noundef nonnull align 1 dereferenceable(1) %2, ptr noundef nonnull @.str.1)
  %3 = getelementptr inbounds nuw i8, ptr %0, i64 576
  %4 = getelementptr inbounds nuw i8, ptr %0, i64 72
  %5 = getelementptr inbounds nuw i8, ptr %0, i64 8
  %6 = load i32, ptr @_ZN37btSequentialImpulseConstraintSolverMt21s_jointBatchingMethodE, align 4, !tbaa !65
  %7 = load i32, ptr @_ZN37btSequentialImpulseConstraintSolverMt14s_minBatchSizeE, align 4, !tbaa !67
  %8 = load i32, ptr @_ZN37btSequentialImpulseConstraintSolverMt14s_maxBatchSizeE, align 4, !tbaa !67
  %9 = getelementptr inbounds nuw i8, ptr %0, i64 888
  invoke void @_ZN20btBatchedConstraints5setupEP20btAlignedObjectArrayI18btSolverConstraintERKS0_I12btSolverBodyENS_14BatchingMethodEiiPS0_IcE(ptr noundef nonnull align 8 dereferenceable(168) %3, ptr noundef nonnull %4, ptr noundef nonnull align 8 dereferenceable(25) %5, i32 noundef %6, i32 noundef %7, i32 noundef %8, ptr noundef nonnull %9)
          to label %10 unwind label %11

10:                                               ; preds = %1
  call void @_ZN14CProfileSampleD1Ev(ptr noundef nonnull align 1 dereferenceable(1) %2) #16
  call void @llvm.lifetime.end.p0(i64 1, ptr nonnull %2) #16
  ret void

11:                                               ; preds = %1
  %12 = landingpad { ptr, i32 }
          cleanup
  call void @_ZN14CProfileSampleD1Ev(ptr noundef nonnull align 1 dereferenceable(1) %2) #16
  call void @llvm.lifetime.end.p0(i64 1, ptr nonnull %2) #16
  resume { ptr, i32 } %12
}